target datalayout = "e-m:e-p270:32:32-p271:32:32-p272:64:64-i64:64-i128:128-f80:128-n8:16:32:64-S128"
target triple = "x86_64-pc-linux-gnu"

%"class.cv::utils::trace::details::Region" = type <{ ptr, i32, [4 x i8] }>
%"class.cv::BaseRowFilter" = type { ptr, i32, i32 }

; Function Attrs: inlinehint mustprogress nounwind uwtable
define linkonce_odr hidden void @_ZN2cv5utils5trace7details6RegionD2Ev(ptr noundef nonnull align 8 dereferenceable(12) %0) unnamed_addr #6 comdat align 2 personality ptr @__gxx_personality_v0 {
  %2 = alloca ptr, align 8
  store ptr %0, ptr %2, align 8, !tbaa !38
  %3 = load ptr, ptr %2, align 8
  %4 = getelementptr inbounds nuw %"class.cv::utils::trace::details::Region", ptr %3, i32 0, i32 1
  %5 = load i32, ptr %4, align 8, !tbaa !40
  %6 = icmp ne i32 %5, 0
  br i1 %6, label %7, label %9

7:                                                ; preds = %1
  invoke void @_ZN2cv5utils5trace7details6Region7destroyEv(ptr noundef nonnull align 8 dereferenceable(12) %3)
          to label %8 unwind label %10

8:                                                ; preds = %7
  br label %9

9:                                                ; preds = %8, %1
  ret void

10:                                               ; preds = %7
  %11 = landingpad { ptr, i32 }
          catch ptr null
  %12 = extractvalue { ptr, i32 } %11, 0
  call void @__clang_call_terminate(ptr %12) #23
  unreachable
}

; Function Attrs: mustprogress uwtable
define internal void @_ZN2cv12cpu_baseline12_GLOBAL__N_19SqrRowSumIddEclEPKhPhii(ptr noundef nonnull align 8 dereferenceable(16) %0, ptr noundef %1, ptr noundef %2, i32 noundef %3, i32 noundef %4) unnamed_addr #0 align 2 {
  %6 = alloca ptr, align 8
  %7 = alloca ptr, align 8
  %8 = alloca ptr, align 8
  %9 = alloca i32, align 4
  %10 = alloca i32, align 4
  %11 = alloca %"class.cv::utils::trace::details::Region", align 8
  %12 = alloca ptr, align 8
  %13 = alloca ptr, align 8
  %14 = alloca i32, align 4
  %15 = alloca i32, align 4
  %16 = alloca i32, align 4
  %17 = alloca double, align 8
  %18 = alloca double, align 8
  %19 = alloca double, align 8
  %20 = alloca double, align 8
  store ptr %0, ptr %6, align 8, !tbaa !1232
  store ptr %1, ptr %7, align 8, !tbaa !12
  store ptr %2, ptr %8, align 8, !tbaa !12
  store i32 %3, ptr %9, align 4, !tbaa !3
  store i32 %4, ptr %10, align 4, !tbaa !3
  %21 = load ptr, ptr %6, align 8
  call void @llvm.lifetime.start.p0(i64 16, ptr %11) #21
  call void @_ZN2cv5utils5trace7details6RegionC1ERKNS3_21LocationStaticStorageE(ptr noundef nonnull align 8 dereferenceable(12) %11, ptr noundef nonnull align 8 dereferenceable(32) @_ZZN2cv12cpu_baseline12_GLOBAL__N_19SqrRowSumIddEclEPKhPhiiE26__cv_trace_location_fn1293)
  call void @llvm.lifetime.start.p0(i64 8, ptr %12) #21
  %22 = load ptr, ptr %7, align 8, !tbaa !12
  store ptr %22, ptr %12, align 8, !tbaa !45
  call void @llvm.lifetime.start.p0(i64 8, ptr %13) #21
  %23 = load ptr, ptr %8, align 8, !tbaa !12
  store ptr %23, ptr %13, align 8, !tbaa !45
  call void @llvm.lifetime.start.p0(i64 4, ptr %14) #21
  store i32 0, ptr %14, align 4, !tbaa !3
  call void @llvm.lifetime.start.p0(i64 4, ptr %15) #21
  call void @llvm.lifetime.start.p0(i64 4, ptr %16) #21
  %24 = getelementptr inbounds nuw %"class.cv::BaseRowFilter", ptr %21, i32 0, i32 1
  %25 = load i32, ptr %24, align 8, !tbaa !203
  %26 = load i32, ptr %10, align 4, !tbaa !3
  %27 = mul nsw i32 %25, %26
  store i32 %27, ptr %16, align 4, !tbaa !3
  %28 = load i32, ptr %9, align 4, !tbaa !3
  %29 = sub nsw i32 %28, 1
  %30 = load i32, ptr %10, align 4, !tbaa !3
  %31 = mul nsw i32 %29, %30
  store i32 %31, ptr %9, align 4, !tbaa !3
  store i32 0, ptr %15, align 4, !tbaa !3
  br label %32

32:                                               ; preds = %97, %5
  %33 = load i32, ptr %15, align 4, !tbaa !3
  %34 = load i32, ptr %10, align 4, !tbaa !3
  %35 = icmp slt i32 %33, %34
  br i1 %35, label %36, label %104

36:                                               ; preds = %32
  call void @llvm.lifetime.start.p0(i64 8, ptr %17) #21
  store double 0.000000e+00, ptr %17, align 8, !tbaa !43
  store i32 0, ptr %14, align 4, !tbaa !3
  br label %37

37:                                               ; preds = %51, %36
  %38 = load i32, ptr %14, align 4, !tbaa !3
  %39 = load i32, ptr %16, align 4, !tbaa !3
  %40 = icmp slt i32 %38, %39
  br i1 %40, label %41, label %55

41:                                               ; preds = %37
  call void @llvm.lifetime.start.p0(i64 8, ptr %18) #21
  %42 = load ptr, ptr %12, align 8, !tbaa !45
  %43 = load i32, ptr %14, align 4, !tbaa !3
  %44 = sext i32 %43 to i64
  %45 = getelementptr inbounds double, ptr %42, i64 %44
  %46 = load double, ptr %45, align 8, !tbaa !43
  store double %46, ptr %18, align 8, !tbaa !43
  %47 = load double, ptr %18, align 8, !tbaa !43
  %48 = load double, ptr %18, align 8, !tbaa !43
  %49 = load double, ptr %17, align 8, !tbaa !43
  %50 = call double @llvm.fmuladd.f64(double %47, double %48, double %49)
  store double %50, ptr %17, align 8, !tbaa !43
  call void @llvm.lifetime.end.p0(i64 8, ptr %18) #21
  br label %51

51:                                               ; preds = %41
  %52 = load i32, ptr %10, align 4, !tbaa !3
  %53 = load i32, ptr %14, align 4, !tbaa !3
  %54 = add nsw i32 %53, %52
  store i32 %54, ptr %14, align 4, !tbaa !3
  br label %37, !llvm.loop !1244

55:                                               ; preds = %37
  %56 = load double, ptr %17, align 8, !tbaa !43
  %57 = load ptr, ptr %13, align 8, !tbaa !45
  %58 = getelementptr inbounds double, ptr %57, i64 0
  store double %56, ptr %58, align 8, !tbaa !43
  store i32 0, ptr %14, align 4, !tbaa !3
  br label %59

59:                                               ; preds = %92, %55
  %60 = load i32, ptr %14, align 4, !tbaa !3
  %61 = load i32, ptr %9, align 4, !tbaa !3
  %62 = icmp slt i32 %60, %61
  br i1 %62, label %63, label %96

63:                                               ; preds = %59
  call void @llvm.lifetime.start.p0(i64 8, ptr %19) #21
  %64 = load ptr, ptr %12, align 8, !tbaa !45
  %65 = load i32, ptr %14, align 4, !tbaa !3
  %66 = sext i32 %65 to i64
  %67 = getelementptr inbounds double, ptr %64, i64 %66
  %68 = load double, ptr %67, align 8, !tbaa !43
  store double %68, ptr %19, align 8, !tbaa !43
  call void @llvm.lifetime.start.p0(i64 8, ptr %20) #21
  %69 = load ptr, ptr %12, align 8, !tbaa !45
  %70 = load i32, ptr %14, align 4, !tbaa !3
  %71 = load i32, ptr %16, align 4, !tbaa !3
  %72 = add nsw i32 %70, %71
  %73 = sext i32 %72 to i64
  %74 = getelementptr inbounds double, ptr %69, i64 %73
  %75 = load double, ptr %74, align 8, !tbaa !43
  store double %75, ptr %20, align 8, !tbaa !43
  %76 = load double, ptr %20, align 8, !tbaa !43
  %77 = load double, ptr %20, align 8, !tbaa !43
  %78 = load double, ptr %19, align 8, !tbaa !43
  %79 = load double, ptr %19, align 8, !tbaa !43
  %80 = fmul double %78, %79
  %81 = fneg double %80
  %82 = call double @llvm.fmuladd.f64(double %76, double %77, double %81)
  %83 = load double, ptr %17, align 8, !tbaa !43
  %84 = fadd double %83, %82
  store double %84, ptr %17, align 8, !tbaa !43
  %85 = load double, ptr %17, align 8, !tbaa !43
  %86 = load ptr, ptr %13, align 8, !tbaa !45
  %87 = load i32, ptr %14, align 4, !tbaa !3
  %88 = load i32, ptr %10, align 4, !tbaa !3
  %89 = add nsw i32 %87, %88
  %90 = sext i32 %89 to i64
  %91 = getelementptr inbounds double, ptr %86, i64 %90
  store double %85, ptr %91, align 8, !tbaa !43
  call void @llvm.lifetime.end.p0(i64 8, ptr %20) #21
  call void @llvm.lifetime.end.p0(i64 8, ptr %19) #21
  br label %92

92:                                               ; preds = %63
  %93 = load i32, ptr %10, align 4, !tbaa !3
  %94 = load i32, ptr %14, align 4, !tbaa !3
  %95 = add nsw i32 %94, %93
  store i32 %95, ptr %14, align 4, !tbaa !3
  br label %59, !llvm.loop !1245

96:                                               ; preds = %59
  call void @llvm.lifetime.end.p0(i64 8, ptr %17) #21
  br label %97

97:                                               ; preds = %96
  %98 = load i32, ptr %15, align 4, !tbaa !3
  %99 = add nsw i32 %98, 1
  store i32 %99, ptr %15, align 4, !tbaa !3
  %100 = load ptr, ptr %12, align 8, !tbaa !45
  %101 = getelementptr inbounds nuw double, ptr %100, i32 1
  store ptr %101, ptr %12, align 8, !tbaa !45
  %102 = load ptr, ptr %13, align 8, !tbaa !45
  %103 = getelementptr inbounds nuw double, ptr %102, i32 1
  store ptr %103, ptr %13, align 8, !tbaa !45
  br label %32, !llvm.loop !1246

104:                                              ; preds = %32
  call void @llvm.lifetime.end.p0(i64 4, ptr %16) #21
  call void @llvm.lifetime.end.p0(i64 4, ptr %15) #21
  call void @llvm.lifetime.end.p0(i64 4, ptr %14) #21
  call void @llvm.lifetime.end.p0(i64 8, ptr %13) #21
  call void @llvm.lifetime.end.p0(i64 8, ptr %12) #21
  call void @_ZN2cv5utils5trace7details6RegionD2Ev(ptr noundef nonnull align 8 dereferenceable(12) %11) #21
  call void @llvm.lifetime.end.p0(i64 16, ptr %11) #21
  ret void
}