; Function Attrs: mustprogress uwtable
define internal void @_ZN2cv12cpu_baseline12_GLOBAL__N_19SqrRowSumIddEclEPKhPhii(ptr noundef nonnull readonly align 8 captures(none) dereferenceable(16) %0, ptr noundef readonly captures(none) %1, ptr noundef writeonly captures(none) %2, i32 noundef %3, i32 noundef %4) unnamed_addr #0 align 2 personality ptr @__gxx_personality_v0 {
  %6 = alloca %"class.cv::utils::trace::details::Region", align 8
  call void @llvm.lifetime.start.p0(i64 16, ptr nonnull %6) #24
  call void @_ZN2cv5utils5trace7details6RegionC1ERKNS3_21LocationStaticStorageE(ptr noundef nonnull align 8 dereferenceable(12) %6, ptr noundef nonnull align 8 dereferenceable(32) @_ZZN2cv12cpu_baseline12_GLOBAL__N_19SqrRowSumIddEclEPKhPhiiE26__cv_trace_location_fn1293)
  %7 = getelementptr inbounds nuw i8, ptr %0, i64 8
  %8 = load i32, ptr %7, align 8, !tbaa !23
  %9 = mul nsw i32 %8, %4
  %10 = add nsw i32 %3, -1
  %11 = mul nsw i32 %10, %4
  %12 = icmp sgt i32 %4, 0
  br i1 %12, label %.preheader.lr.ph, label %._crit_edge56

.preheader.lr.ph:                                 ; preds = %5
  %13 = icmp sgt i32 %9, 0
  %14 = icmp sgt i32 %11, 0
  %15 = zext nneg i32 %4 to i64
  br i1 %14, label %.preheader.lr.ph.split.us, label %.preheader.lr.ph.split

.preheader.lr.ph.split.us:                        ; preds = %.preheader.lr.ph
  br i1 %13, label %.preheader.us.us.preheader, label %.preheader.us.preheader

.preheader.us.preheader:                          ; preds = %.preheader.lr.ph.split.us
  %16 = sext i32 %9 to i64
  %17 = zext nneg i32 %11 to i64
  br label %.preheader.us

.preheader.us.us.preheader:                       ; preds = %.preheader.lr.ph.split.us
  %18 = zext nneg i32 %9 to i64
  br label %.preheader.us.us

.preheader.us.us:                                 ; preds = %.preheader.us.us.preheader, %._crit_edge52.us.us
  %.055.us.us = phi ptr [ %37, %._crit_edge52.us.us ], [ %1, %.preheader.us.us.preheader ]
  %.03954.us.us = phi ptr [ %38, %._crit_edge52.us.us ], [ %2, %.preheader.us.us.preheader ]
  %.04353.us.us = phi i32 [ %36, %._crit_edge52.us.us ], [ 0, %.preheader.us.us.preheader ]
  br label %30

19:                                               ; preds = %19, %._crit_edge.us.us
  %indvars.iv79 = phi i64 [ %indvars.iv.next80, %19 ], [ 0, %._crit_edge.us.us ]
  %.149.us.us = phi double [ %26, %19 ], [ %33, %._crit_edge.us.us ]
  %20 = getelementptr inbounds nuw double, ptr %.055.us.us, i64 %indvars.iv79
  %21 = load double, ptr %20, align 8, !tbaa !327
  %gep87 = getelementptr inbounds nuw double, ptr %invariant.gep86, i64 %indvars.iv79
  %22 = load double, ptr %gep87, align 8, !tbaa !327
  %23 = fneg double %21
  %24 = fmul double %21, %23
  %25 = call double @llvm.fmuladd.f64(double %22, double %22, double %24)
  %26 = fadd double %.149.us.us, %25
  %indvars.iv.next80 = add nuw nsw i64 %indvars.iv79, %15
  %27 = getelementptr inbounds nuw double, ptr %.03954.us.us, i64 %indvars.iv.next80
  store double %26, ptr %27, align 8, !tbaa !327
  %28 = trunc nuw i64 %indvars.iv.next80 to i32
  %29 = icmp sgt i32 %11, %28
  br i1 %29, label %19, label %._crit_edge52.us.us, !llvm.loop !515

30:                                               ; preds = %.preheader.us.us, %30
  %indvars.iv76 = phi i64 [ 0, %.preheader.us.us ], [ %indvars.iv.next77, %30 ]
  %.04047.us.us = phi double [ 0.000000e+00, %.preheader.us.us ], [ %33, %30 ]
  %31 = getelementptr inbounds nuw double, ptr %.055.us.us, i64 %indvars.iv76
  %32 = load double, ptr %31, align 8, !tbaa !327
  %33 = call double @llvm.fmuladd.f64(double %32, double %32, double %.04047.us.us)
  %indvars.iv.next77 = add nuw nsw i64 %indvars.iv76, %15
  %34 = trunc nuw i64 %indvars.iv.next77 to i32
  %35 = icmp sgt i32 %9, %34
  br i1 %35, label %30, label %._crit_edge.us.us, !llvm.loop !516

._crit_edge.us.us:                                ; preds = %30
  store double %33, ptr %.03954.us.us, align 8, !tbaa !327
  %invariant.gep86 = getelementptr inbounds nuw double, ptr %.055.us.us, i64 %18
  br label %19

._crit_edge52.us.us:                              ; preds = %19
  %36 = add nuw nsw i32 %.04353.us.us, 1
  %37 = getelementptr inbounds nuw i8, ptr %.055.us.us, i64 8
  %38 = getelementptr inbounds nuw i8, ptr %.03954.us.us, i64 8
  %exitcond82.not = icmp eq i32 %36, %4
  br i1 %exitcond82.not, label %._crit_edge56, label %.preheader.us.us, !llvm.loop !517

.preheader.us:                                    ; preds = %.preheader.us.preheader, %._crit_edge52.us
  %.055.us = phi ptr [ %50, %._crit_edge52.us ], [ %1, %.preheader.us.preheader ]
  %.03954.us = phi ptr [ %51, %._crit_edge52.us ], [ %2, %.preheader.us.preheader ]
  %.04353.us = phi i32 [ %49, %._crit_edge52.us ], [ 0, %.preheader.us.preheader ]
  store double 0.000000e+00, ptr %.03954.us, align 8, !tbaa !327
  %invariant.gep = getelementptr double, ptr %.055.us, i64 %16
  br label %39

39:                                               ; preds = %.preheader.us, %39
  %indvars.iv72 = phi i64 [ 0, %.preheader.us ], [ %indvars.iv.next73, %39 ]
  %.149.us = phi double [ 0.000000e+00, %.preheader.us ], [ %46, %39 ]
  %40 = getelementptr inbounds nuw double, ptr %.055.us, i64 %indvars.iv72
  %41 = load double, ptr %40, align 8, !tbaa !327
  %gep = getelementptr double, ptr %invariant.gep, i64 %indvars.iv72
  %42 = load double, ptr %gep, align 8, !tbaa !327
  %43 = fneg double %41
  %44 = fmul double %41, %43
  %45 = call double @llvm.fmuladd.f64(double %42, double %42, double %44)
  %46 = fadd double %.149.us, %45
  %indvars.iv.next73 = add nuw nsw i64 %indvars.iv72, %15
  %47 = getelementptr inbounds nuw double, ptr %.03954.us, i64 %indvars.iv.next73
  store double %46, ptr %47, align 8, !tbaa !327
  %48 = icmp samesign ult i64 %indvars.iv.next73, %17
  br i1 %48, label %39, label %._crit_edge52.us, !llvm.loop !515

._crit_edge52.us:                                 ; preds = %39
  %49 = add nuw nsw i32 %.04353.us, 1
  %50 = getelementptr inbounds nuw i8, ptr %.055.us, i64 8
  %51 = getelementptr inbounds nuw i8, ptr %.03954.us, i64 8
  %exitcond75.not = icmp eq i32 %49, %4
  br i1 %exitcond75.not, label %._crit_edge56, label %.preheader.us, !llvm.loop !517

.preheader.lr.ph.split:                           ; preds = %.preheader.lr.ph
  br i1 %13, label %.preheader.us57, label %.preheader.preheader

.preheader.preheader:                             ; preds = %.preheader.lr.ph.split
  %52 = shl nuw nsw i64 %15, 3
  call void @llvm.memset.p0.i64(ptr align 8 %2, i8 0, i64 %52, i1 false), !tbaa !327
  br label %._crit_edge56

.preheader.us57:                                  ; preds = %.preheader.lr.ph.split, %._crit_edge.us65
  %.055.us58 = phi ptr [ %60, %._crit_edge.us65 ], [ %1, %.preheader.lr.ph.split ]
  %.03954.us59 = phi ptr [ %61, %._crit_edge.us65 ], [ %2, %.preheader.lr.ph.split ]
  %.04353.us60 = phi i32 [ %59, %._crit_edge.us65 ], [ 0, %.preheader.lr.ph.split ]
  br label %53

53:                                               ; preds = %.preheader.us57, %53
  %indvars.iv = phi i64 [ 0, %.preheader.us57 ], [ %indvars.iv.next, %53 ]
  %.04047.us62 = phi double [ 0.000000e+00, %.preheader.us57 ], [ %56, %53 ]
  %54 = getelementptr inbounds nuw double, ptr %.055.us58, i64 %indvars.iv
  %55 = load double, ptr %54, align 8, !tbaa !327
  %56 = call double @llvm.fmuladd.f64(double %55, double %55, double %.04047.us62)
  %indvars.iv.next = add nuw nsw i64 %indvars.iv, %15
  %57 = trunc nuw i64 %indvars.iv.next to i32
  %58 = icmp sgt i32 %9, %57
  br i1 %58, label %53, label %._crit_edge.us65, !llvm.loop !516

._crit_edge.us65:                                 ; preds = %53
  store double %56, ptr %.03954.us59, align 8, !tbaa !327
  %59 = add nuw nsw i32 %.04353.us60, 1
  %60 = getelementptr inbounds nuw i8, ptr %.055.us58, i64 8
  %61 = getelementptr inbounds nuw i8, ptr %.03954.us59, i64 8
  %exitcond.not = icmp eq i32 %59, %4
  br i1 %exitcond.not, label %._crit_edge56, label %.preheader.us57, !llvm.loop !517

._crit_edge56:                                    ; preds = %._crit_edge.us65, %._crit_edge52.us, %._crit_edge52.us.us, %.preheader.preheader, %5
  %62 = getelementptr inbounds nuw i8, ptr %6, i64 8
  %63 = load i32, ptr %62, align 8, !tbaa !67
  %.not.i = icmp eq i32 %63, 0
  br i1 %.not.i, label %_ZN2cv5utils5trace7details6RegionD2Ev.exit, label %64

64:                                               ; preds = %._crit_edge56
  invoke void @_ZN2cv5utils5trace7details6Region7destroyEv(ptr noundef nonnull align 8 dereferenceable(12) %6)
          to label %_ZN2cv5utils5trace7details6RegionD2Ev.exit unwind label %65

65:                                               ; preds = %64
  %66 = landingpad { ptr, i32 }
          catch ptr null
  %67 = extractvalue { ptr, i32 } %66, 0
  call void @__clang_call_terminate(ptr %67) #28
  unreachable

_ZN2cv5utils5trace7details6RegionD2Ev.exit:       ; preds = %._crit_edge56, %64
  call void @llvm.lifetime.end.p0(i64 16, ptr nonnull %6) #24
  ret void
}